target datalayout = "e-m:e-p270:32:32-p271:32:32-p272:64:64-i64:64-i128:128-f80:128-n8:16:32:64-S128"
target triple = "x86_64-pc-linux-gnu"

%struct.Node = type { i32 }
%struct.Expr = type { i32 }
%struct.substitute_phv_relids_context = type { i32, i32, ptr }
%struct.PlaceHolderVar = type { %struct.Expr, ptr, ptr, ptr, i32, i32 }

; Function Attrs: nounwind uwtable
define internal zeroext i1 @substitute_phv_relids_walker(ptr noundef %0, ptr noundef %1) #0 {
  %3 = alloca i1, align 1
  %4 = alloca ptr, align 8
  %5 = alloca ptr, align 8
  %6 = alloca ptr, align 8
  %7 = alloca i8, align 1
  store ptr %0, ptr %4, align 8
  store ptr %1, ptr %5, align 8
  %8 = load ptr, ptr %4, align 8
  %9 = icmp eq ptr %8, null
  br i1 %9, label %10, label %11

10:                                               ; preds = %2
  store i1 false, ptr %3, align 1
  br label %77

11:                                               ; preds = %2
  %12 = load ptr, ptr %4, align 8
  %13 = getelementptr inbounds nuw %struct.Node, ptr %12, i32 0, i32 0
  %14 = load i32, ptr %13, align 4
  %15 = icmp eq i32 %14, 318
  br i1 %15, label %16, label %53

16:                                               ; preds = %11
  call void @llvm.lifetime.start.p0(i64 8, ptr %6) #8
  %17 = load ptr, ptr %4, align 8
  store ptr %17, ptr %6, align 8
  %18 = load ptr, ptr %6, align 8
  %19 = getelementptr inbounds nuw %struct.PlaceHolderVar, ptr %18, i32 0, i32 5
  %20 = load i32, ptr %19, align 4
  %21 = load ptr, ptr %5, align 8
  %22 = getelementptr inbounds nuw %struct.substitute_phv_relids_context, ptr %21, i32 0, i32 1
  %23 = load i32, ptr %22, align 4
  %24 = icmp eq i32 %20, %23
  br i1 %24, label %25, label %52

25:                                               ; preds = %16
  %26 = load ptr, ptr %5, align 8
  %27 = getelementptr inbounds nuw %struct.substitute_phv_relids_context, ptr %26, i32 0, i32 0
  %28 = load i32, ptr %27, align 8
  %29 = load ptr, ptr %6, align 8
  %30 = getelementptr inbounds nuw %struct.PlaceHolderVar, ptr %29, i32 0, i32 2
  %31 = load ptr, ptr %30, align 8
  %32 = call zeroext i1 @bms_is_member(i32 noundef %28, ptr noundef %31)
  br i1 %32, label %33, label %52

33:                                               ; preds = %25
  %34 = load ptr, ptr %6, align 8
  %35 = getelementptr inbounds nuw %struct.PlaceHolderVar, ptr %34, i32 0, i32 2
  %36 = load ptr, ptr %35, align 8
  %37 = load ptr, ptr %5, align 8
  %38 = getelementptr inbounds nuw %struct.substitute_phv_relids_context, ptr %37, i32 0, i32 2
  %39 = load ptr, ptr %38, align 8
  %40 = call ptr @bms_union(ptr noundef %36, ptr noundef %39)
  %41 = load ptr, ptr %6, align 8
  %42 = getelementptr inbounds nuw %struct.PlaceHolderVar, ptr %41, i32 0, i32 2
  store ptr %40, ptr %42, align 8
  %43 = load ptr, ptr %6, align 8
  %44 = getelementptr inbounds nuw %struct.PlaceHolderVar, ptr %43, i32 0, i32 2
  %45 = load ptr, ptr %44, align 8
  %46 = load ptr, ptr %5, align 8
  %47 = getelementptr inbounds nuw %struct.substitute_phv_relids_context, ptr %46, i32 0, i32 0
  %48 = load i32, ptr %47, align 8
  %49 = call ptr @bms_del_member(ptr noundef %45, i32 noundef %48)
  %50 = load ptr, ptr %6, align 8
  %51 = getelementptr inbounds nuw %struct.PlaceHolderVar, ptr %50, i32 0, i32 2
  store ptr %49, ptr %51, align 8
  br label %52

52:                                               ; preds = %33, %25, %16
  call void @llvm.lifetime.end.p0(i64 8, ptr %6) #8
  br label %53

53:                                               ; preds = %52, %11
  %54 = load ptr, ptr %4, align 8
  %55 = getelementptr inbounds nuw %struct.Node, ptr %54, i32 0, i32 0
  %56 = load i32, ptr %55, align 4
  %57 = icmp eq i32 %56, 67
  br i1 %57, label %58, label %73

58:                                               ; preds = %53
  call void @llvm.lifetime.start.p0(i64 1, ptr %7) #8
  %59 = load ptr, ptr %5, align 8
  %60 = getelementptr inbounds nuw %struct.substitute_phv_relids_context, ptr %59, i32 0, i32 1
  %61 = load i32, ptr %60, align 4
  %62 = add i32 %61, 1
  store i32 %62, ptr %60, align 4
  %63 = load ptr, ptr %4, align 8
  %64 = load ptr, ptr %5, align 8
  %65 = call zeroext i1 @query_tree_walker_impl(ptr noundef %63, ptr noundef @substitute_phv_relids_walker, ptr noundef %64, i32 noundef 0)
  %66 = zext i1 %65 to i8
  store i8 %66, ptr %7, align 1
  %67 = load ptr, ptr %5, align 8
  %68 = getelementptr inbounds nuw %struct.substitute_phv_relids_context, ptr %67, i32 0, i32 1
  %69 = load i32, ptr %68, align 4
  %70 = add i32 %69, -1
  store i32 %70, ptr %68, align 4
  %71 = load i8, ptr %7, align 1, !range !7, !noundef !8
  %72 = trunc i8 %71 to i1
  store i1 %72, ptr %3, align 1
  call void @llvm.lifetime.end.p0(i64 1, ptr %7) #8
  br label %77

73:                                               ; preds = %53
  %74 = load ptr, ptr %4, align 8
  %75 = load ptr, ptr %5, align 8
  %76 = call zeroext i1 @expression_tree_walker_impl(ptr noundef %74, ptr noundef @substitute_phv_relids_walker, ptr noundef %75)
  store i1 %76, ptr %3, align 1
  br label %77

77:                                               ; preds = %73, %58, %10
  %78 = load i1, ptr %3, align 1
  ret i1 %78
}