; Function Attrs: nounwind uwtable
define internal zeroext i1 @substitute_phv_relids_walker(ptr noundef %0, ptr noundef %1) #0 {
  %3 = icmp eq ptr %0, null
  br i1 %3, label %37, label %4

4:                                                ; preds = %2
  %5 = load i32, ptr %0, align 4
  %6 = icmp eq i32 %5, 318
  br i1 %6, label %7, label %25

7:                                                ; preds = %4
  %8 = getelementptr inbounds nuw i8, ptr %0, i64 36
  %9 = load i32, ptr %8, align 4
  %10 = getelementptr inbounds nuw i8, ptr %1, i64 4
  %11 = load i32, ptr %10, align 4
  %12 = icmp eq i32 %9, %11
  br i1 %12, label %13, label %thread-pre-split

13:                                               ; preds = %7
  %14 = load i32, ptr %1, align 8
  %15 = getelementptr inbounds nuw i8, ptr %0, i64 16
  %16 = load ptr, ptr %15, align 8
  %17 = tail call zeroext i1 @bms_is_member(i32 noundef %14, ptr noundef %16) #7
  br i1 %17, label %18, label %thread-pre-split

18:                                               ; preds = %13
  %19 = load ptr, ptr %15, align 8
  %20 = getelementptr inbounds nuw i8, ptr %1, i64 8
  %21 = load ptr, ptr %20, align 8
  %22 = tail call ptr @bms_union(ptr noundef %19, ptr noundef %21) #7
  store ptr %22, ptr %15, align 8
  %23 = load i32, ptr %1, align 8
  %24 = tail call ptr @bms_del_member(ptr noundef %22, i32 noundef %23) #7
  store ptr %24, ptr %15, align 8
  br label %thread-pre-split

thread-pre-split:                                 ; preds = %18, %13, %7
  %.pr = load i32, ptr %0, align 4
  br label %25

25:                                               ; preds = %thread-pre-split, %4
  %26 = phi i32 [ %.pr, %thread-pre-split ], [ %5, %4 ]
  %27 = icmp eq i32 %26, 67
  br i1 %27, label %28, label %35

28:                                               ; preds = %25
  %29 = getelementptr inbounds nuw i8, ptr %1, i64 4
  %30 = load i32, ptr %29, align 4
  %31 = add i32 %30, 1
  store i32 %31, ptr %29, align 4
  %32 = tail call zeroext i1 @query_tree_walker_impl(ptr noundef nonnull %0, ptr noundef nonnull @substitute_phv_relids_walker, ptr noundef %1, i32 noundef 0) #7
  %33 = load i32, ptr %29, align 4
  %34 = add i32 %33, -1
  store i32 %34, ptr %29, align 4
  br label %37

35:                                               ; preds = %25
  %36 = tail call zeroext i1 @expression_tree_walker_impl(ptr noundef nonnull %0, ptr noundef nonnull @substitute_phv_relids_walker, ptr noundef %1) #7
  br label %37

37:                                               ; preds = %2, %35, %28
  %.0 = phi i1 [ %32, %28 ], [ %36, %35 ], [ false, %2 ]
  ret i1 %.0
}